; ModuleID = 'autocfg_6d20dc7a64bbabed_1.eefc6bb422147c2b-cgu.0'
source_filename = "autocfg_6d20dc7a64bbabed_1.eefc6bb422147c2b-cgu.0"
target datalayout = "e-m:w-p270:32:32-p271:32:32-p272:64:64-i64:64-i128:128-f80:128-n8:16:32:64-S128"
target triple = "x86_64-pc-windows-msvc"

; autocfg_6d20dc7a64bbabed_1::probe
; Function Attrs: uwtable
define void @_ZN26autocfg_6d20dc7a64bbabed_15probe17h75a6fda5bdce9923E() unnamed_addr #0 {
start:
; call core::f64::<impl f64>::to_int_unchecked
  %_1 = call i32 @"_ZN4core3f6421_$LT$impl$u20$f64$GT$16to_int_unchecked17hc41054cd246f7976E"(double 1.000000e+00) #2
  ret void
}

; core::f64::<impl f64>::to_int_unchecked
; Function Attrs: inlinehint uwtable
define i32 @"_ZN4core3f6421_$LT$impl$u20$f64$GT$16to_int_unchecked17hc41054cd246f7976E"(double %self) unnamed_addr #1 {
start:
; call <f64 as core::convert::num::FloatToInt<i32>>::to_int_unchecked
  %_0 = call i32 @"_ZN65_$LT$f64$u20$as$u20$core..convert..num..FloatToInt$LT$i32$GT$$GT$16to_int_unchecked17hbcc6c0db02ce1b78E"(double %self) #2
  ret i32 %_0
}

; <f64 as core::convert::num::FloatToInt<i32>>::to_int_unchecked
; Function Attrs: inlinehint uwtable
define internal i32 @"_ZN65_$LT$f64$u20$as$u20$core..convert..num..FloatToInt$LT$i32$GT$$GT$16to_int_unchecked17hbcc6c0db02ce1b78E"(double %self) unnamed_addr #1 {
start:
  %0 = alloca [4 x i8], align 4
  %1 = fptosi double %self to i32
  store i32 %1, ptr %0, align 4
  %_0 = load i32, ptr %0, align 4
  ret i32 %_0
}

attributes #0 = { uwtable "target-cpu"="x86-64" "target-features"="+cx16,+sse,+sse2,+sse3,+sahf" }
attributes #1 = { inlinehint uwtable "target-cpu"="x86-64" "target-features"="+cx16,+sse,+sse2,+sse3,+sahf" }
attributes #2 = { inlinehint }

!llvm.module.flags = !{!0}
!llvm.ident = !{!1}

!0 = !{i32 8, !"PIC Level", i32 2}
!1 = !{!"rustc version 1.93.1 (01f6ddf75 2026-02-11)"}
